; Function Attrs: mustprogress uwtable
define dso_local void @_ZN20cmCMakePresetsErrors19INVALID_ROOT_OBJECTEN10JsonErrors11ObjectErrorERKSt6vectorINSt7__cxx1112basic_stringIcSt11char_traitsIcESaIcEEESaIS8_EE(ptr dead_on_unwind noalias writable sret(%"class.std::function") align 8 %0, i32 noundef %1, ptr noundef nonnull align 8 dereferenceable(24) %2) local_unnamed_addr #3 personality ptr @__gxx_personality_v0 {
  %4 = alloca i32, align 4
  %5 = alloca %"class.std::function.11", align 8
  %6 = alloca %"class.std::function.14", align 8
  call void @llvm.lifetime.start.p0(i64 32, ptr nonnull %5) #17
  call void @llvm.lifetime.start.p0(i64 32, ptr nonnull %6) #17
  %7 = getelementptr inbounds nuw i8, ptr %6, i64 16
  %8 = getelementptr inbounds nuw i8, ptr %6, i64 24
  call void @llvm.memset.p0.i64(ptr noundef nonnull align 8 dereferenceable(32) %6, i8 0, i64 16, i1 false)
  store ptr @"_ZNSt17_Function_handlerIFNSt7__cxx1112basic_stringIcSt11char_traitsIcESaIcEEEPKN4Json5ValueEP11cmJSONStateEZN20cmCMakePresetsErrors19INVALID_ROOT_OBJECTEN10JsonErrors11ObjectErrorERKSt6vectorIS5_SaIS5_EEE3$_0E9_M_invokeERKSt9_Any_dataOS9_OSB_", ptr %8, align 8, !tbaa !269
  store ptr @"_ZNSt17_Function_handlerIFNSt7__cxx1112basic_stringIcSt11char_traitsIcESaIcEEEPKN4Json5ValueEP11cmJSONStateEZN20cmCMakePresetsErrors19INVALID_ROOT_OBJECTEN10JsonErrors11ObjectErrorERKSt6vectorIS5_SaIS5_EEE3$_0E10_M_managerERSt9_Any_dataRKSN_St18_Manager_operation", ptr %7, align 8, !tbaa !234
  invoke void @_ZN10JsonErrors20INVALID_NAMED_OBJECTERKSt8functionIFNSt7__cxx1112basic_stringIcSt11char_traitsIcESaIcEEEPKN4Json5ValueEP11cmJSONStateEE(ptr dead_on_unwind nonnull writable sret(%"class.std::function.11") align 8 %5, ptr noundef nonnull align 8 dereferenceable(32) %6)
          to label %9 unwind label %29

9:                                                ; preds = %3
  call void @llvm.lifetime.start.p0(i64 4, ptr nonnull %4)
  store i32 %1, ptr %4, align 4, !tbaa !271, !noalias !284
  %10 = getelementptr inbounds nuw i8, ptr %5, i64 16
  %11 = load ptr, ptr %10, align 8, !tbaa !234, !noalias !284
  %.not.i.i = icmp eq ptr %11, null
  br i1 %.not.i.i, label %12, label %13

12:                                               ; preds = %9
  invoke void @_ZSt25__throw_bad_function_callv() #20
          to label %.noexc unwind label %31

.noexc:                                           ; preds = %12
  unreachable

13:                                               ; preds = %9
  %14 = getelementptr inbounds nuw i8, ptr %5, i64 24
  %15 = load ptr, ptr %14, align 8, !tbaa !276, !noalias !284
  invoke void %15(ptr dead_on_unwind writable sret(%"class.std::function") align 8 %0, ptr noundef nonnull align 8 dereferenceable(32) %5, ptr noundef nonnull align 4 dereferenceable(4) %4, ptr noundef nonnull align 8 dereferenceable(24) %2)
          to label %16 unwind label %31

16:                                               ; preds = %13
  call void @llvm.lifetime.end.p0(i64 4, ptr nonnull %4)
  %17 = load ptr, ptr %10, align 8, !tbaa !234
  %.not.i = icmp eq ptr %17, null
  br i1 %.not.i, label %_ZNSt14_Function_baseD2Ev.exit, label %18

18:                                               ; preds = %16
  %19 = invoke noundef zeroext i1 %17(ptr noundef nonnull align 8 dereferenceable(32) %5, ptr noundef nonnull align 8 dereferenceable(32) %5, i32 noundef 3)
          to label %_ZNSt14_Function_baseD2Ev.exit unwind label %20

20:                                               ; preds = %18
  %21 = landingpad { ptr, i32 }
          catch ptr null
  %22 = extractvalue { ptr, i32 } %21, 0
  call void @__clang_call_terminate(ptr %22) #21
  unreachable

_ZNSt14_Function_baseD2Ev.exit:                   ; preds = %16, %18
  %23 = load ptr, ptr %7, align 8, !tbaa !234
  %.not.i6 = icmp eq ptr %23, null
  br i1 %.not.i6, label %_ZNSt14_Function_baseD2Ev.exit7, label %24

24:                                               ; preds = %_ZNSt14_Function_baseD2Ev.exit
  %25 = invoke noundef zeroext i1 %23(ptr noundef nonnull align 8 dereferenceable(32) %6, ptr noundef nonnull align 8 dereferenceable(32) %6, i32 noundef 3)
          to label %_ZNSt14_Function_baseD2Ev.exit7 unwind label %26

26:                                               ; preds = %24
  %27 = landingpad { ptr, i32 }
          catch ptr null
  %28 = extractvalue { ptr, i32 } %27, 0
  call void @__clang_call_terminate(ptr %28) #21
  unreachable

_ZNSt14_Function_baseD2Ev.exit7:                  ; preds = %_ZNSt14_Function_baseD2Ev.exit, %24
  call void @llvm.lifetime.end.p0(i64 32, ptr nonnull %6) #17
  call void @llvm.lifetime.end.p0(i64 32, ptr nonnull %5) #17
  ret void

29:                                               ; preds = %3
  %30 = landingpad { ptr, i32 }
          cleanup
  br label %_ZNSt14_Function_baseD2Ev.exit9

31:                                               ; preds = %13, %12
  %32 = landingpad { ptr, i32 }
          cleanup
  %33 = load ptr, ptr %10, align 8, !tbaa !234
  %.not.i8 = icmp eq ptr %33, null
  br i1 %.not.i8, label %_ZNSt14_Function_baseD2Ev.exit9, label %34

34:                                               ; preds = %31
  %35 = invoke noundef zeroext i1 %33(ptr noundef nonnull align 8 dereferenceable(32) %5, ptr noundef nonnull align 8 dereferenceable(32) %5, i32 noundef 3)
          to label %_ZNSt14_Function_baseD2Ev.exit9 unwind label %36

36:                                               ; preds = %34
  %37 = landingpad { ptr, i32 }
          catch ptr null
  %38 = extractvalue { ptr, i32 } %37, 0
  call void @__clang_call_terminate(ptr %38) #21
  unreachable

_ZNSt14_Function_baseD2Ev.exit9:                  ; preds = %34, %31, %29
  %.pn = phi { ptr, i32 } [ %30, %29 ], [ %32, %31 ], [ %32, %34 ]
  %39 = load ptr, ptr %7, align 8, !tbaa !234
  %.not.i10 = icmp eq ptr %39, null
  br i1 %.not.i10, label %_ZNSt14_Function_baseD2Ev.exit11, label %40

40:                                               ; preds = %_ZNSt14_Function_baseD2Ev.exit9
  %41 = invoke noundef zeroext i1 %39(ptr noundef nonnull align 8 dereferenceable(32) %6, ptr noundef nonnull align 8 dereferenceable(32) %6, i32 noundef 3)
          to label %_ZNSt14_Function_baseD2Ev.exit11 unwind label %42

42:                                               ; preds = %40
  %43 = landingpad { ptr, i32 }
          catch ptr null
  %44 = extractvalue { ptr, i32 } %43, 0
  call void @__clang_call_terminate(ptr %44) #21
  unreachable

_ZNSt14_Function_baseD2Ev.exit11:                 ; preds = %_ZNSt14_Function_baseD2Ev.exit9, %40
  call void @llvm.lifetime.end.p0(i64 32, ptr nonnull %6) #17
  call void @llvm.lifetime.end.p0(i64 32, ptr nonnull %5) #17
  resume { ptr, i32 } %.pn
}